target datalayout = "e-m:e-p270:32:32-p271:32:32-p272:64:64-i64:64-i128:128-f80:128-n8:16:32:64-S128"
target triple = "x86_64-pc-linux-gnu"

%struct.RBasic = type { i64, i64 }
%struct.RString = type { %struct.RBasic, i64, %union.anon.16 }
%union.anon.16 = type { %struct.anon.17 }
%struct.anon.17 = type { ptr, %union.anon.18 }
%union.anon.18 = type { i64 }
%struct.anon.19 = type { [1 x i8] }

; Function Attrs: inlinehint nounwind sspstrong willreturn memory(read) uwtable
define internal i64 @RB_FL_TEST_RAW(i64 noundef %0, i64 noundef %1) #19 {
  %3 = alloca i64, align 8
  %4 = alloca i64, align 8
  store i64 %0, ptr %3, align 8, !tbaa !7
  store i64 %1, ptr %4, align 8, !tbaa !7
  %5 = load i64, ptr %3, align 8, !tbaa !7
  %6 = inttoptr i64 %5 to ptr
  %7 = getelementptr inbounds nuw %struct.RBasic, ptr %6, i32 0, i32 0
  %8 = load i64, ptr %7, align 8, !tbaa !184
  %9 = load i64, ptr %4, align 8, !tbaa !7
  %10 = and i64 %8, %9
  ret i64 %10
}

; Function Attrs: inlinehint nounwind sspstrong willreturn memory(read) uwtable
define internal i64 @RSTRING_LEN(i64 noundef %0) #19 {
  %2 = alloca i64, align 8
  store i64 %0, ptr %2, align 8, !tbaa !7
  %3 = load i64, ptr %2, align 8, !tbaa !7
  %4 = inttoptr i64 %3 to ptr
  %5 = getelementptr inbounds nuw %struct.RString, ptr %4, i32 0, i32 1
  %6 = load i64, ptr %5, align 8, !tbaa !202
  ret i64 %6
}

; Function Attrs: inlinehint nounwind sspstrong willreturn memory(read) uwtable
define internal zeroext i1 @RB_FL_ANY_RAW(i64 noundef %0, i64 noundef %1) #19 {
  %3 = alloca i64, align 8
  %4 = alloca i64, align 8
  store i64 %0, ptr %3, align 8, !tbaa !7
  store i64 %1, ptr %4, align 8, !tbaa !7
  %5 = load i64, ptr %3, align 8, !tbaa !7
  %6 = load i64, ptr %4, align 8, !tbaa !7
  %7 = call i64 @RB_FL_TEST_RAW(i64 noundef %5, i64 noundef %6) #27
  %8 = icmp ne i64 %7, 0
  ret i1 %8
}

; Function Attrs: inlinehint nounwind sspstrong willreturn memory(read, argmem: readwrite) uwtable
define internal void @rbimpl_rstring_getmem(ptr dead_on_unwind noalias writable sret(%struct.RString) align 8 %0, i64 noundef %1) #24 {
  %3 = alloca i64, align 8
  store i64 %1, ptr %3, align 8, !tbaa !7
  %4 = load i64, ptr %3, align 8, !tbaa !7
  %5 = call zeroext i1 @RB_FL_ANY_RAW(i64 noundef %4, i64 noundef 8192) #27
  br i1 %5, label %6, label %9

6:                                                ; preds = %2
  %7 = load i64, ptr %3, align 8, !tbaa !7
  %8 = inttoptr i64 %7 to ptr
  call void @llvm.memcpy.p0.p0.i64(ptr align 8 %0, ptr align 8 %8, i64 40, i1 false), !tbaa.struct !201
  br label %20

9:                                                ; preds = %2
  %10 = load i64, ptr %3, align 8, !tbaa !7
  %11 = call i64 @RSTRING_LEN(i64 noundef %10) #27
  %12 = getelementptr inbounds nuw %struct.RString, ptr %0, i32 0, i32 1
  store i64 %11, ptr %12, align 8, !tbaa !202
  %13 = load i64, ptr %3, align 8, !tbaa !7
  %14 = inttoptr i64 %13 to ptr
  %15 = getelementptr inbounds nuw %struct.RString, ptr %14, i32 0, i32 2
  %16 = getelementptr inbounds nuw %struct.anon.19, ptr %15, i32 0, i32 0
  %17 = getelementptr inbounds [1 x i8], ptr %16, i64 0, i64 0
  %18 = getelementptr inbounds nuw %struct.RString, ptr %0, i32 0, i32 2
  %19 = getelementptr inbounds nuw %struct.anon.17, ptr %18, i32 0, i32 0
  store ptr %17, ptr %19, align 8, !tbaa !26
  br label %20

20:                                               ; preds = %9, %6
  ret void
}

; Function Attrs: nounwind sspstrong uwtable
define internal i64 @check_dirname(i64 noundef %0) #0 {
  %2 = alloca i64, align 8
  %3 = alloca i64, align 8
  %4 = alloca ptr, align 8
  %5 = alloca ptr, align 8
  %6 = alloca i64, align 8
  %7 = alloca ptr, align 8
  %8 = alloca ptr, align 8
  %9 = alloca ptr, align 8
  %10 = alloca %struct.RString, align 8
  %11 = alloca i64, align 8
  store i64 %0, ptr %2, align 8, !tbaa !7
  call void @llvm.lifetime.start.p0(i64 8, ptr %3) #26
  %12 = load i64, ptr %2, align 8, !tbaa !7
  store i64 %12, ptr %3, align 8, !tbaa !7
  call void @llvm.lifetime.start.p0(i64 8, ptr %4) #26
  call void @llvm.lifetime.start.p0(i64 8, ptr %5) #26
  call void @llvm.lifetime.start.p0(i64 8, ptr %6) #26
  call void @llvm.lifetime.start.p0(i64 8, ptr %7) #26
  %13 = load i64, ptr %3, align 8, !tbaa !7
  %14 = call i64 @rb_get_path(i64 noundef %13)
  call void @llvm.lifetime.start.p0(i64 8, ptr %8) #26
  store ptr %3, ptr %8, align 8, !tbaa !48
  call void asm sideeffect "", "*m,~{dirflag},~{fpsr},~{flags}"(ptr elementtype(ptr) %8) #26, !srcloc !204
  %15 = load ptr, ptr %8, align 8, !tbaa !48
  store ptr %15, ptr %9, align 8, !tbaa !48
  call void @llvm.lifetime.end.p0(i64 8, ptr %8) #26
  %16 = load ptr, ptr %9, align 8, !tbaa !48
  store volatile i64 %14, ptr %16, align 8, !tbaa !7
  %17 = load i64, ptr %3, align 8, !tbaa !7
  %18 = call ptr @rb_enc_get(i64 noundef %17)
  store ptr %18, ptr %7, align 8, !tbaa !19
  call void @llvm.lifetime.start.p0(i64 40, ptr %10) #26
  %19 = load i64, ptr %3, align 8, !tbaa !7
  call void @rbimpl_rstring_getmem(ptr dead_on_unwind writable sret(%struct.RString) align 8 %10, i64 noundef %19) #35
  %20 = getelementptr inbounds nuw %struct.RString, ptr %10, i32 0, i32 2
  %21 = getelementptr inbounds nuw %struct.anon.17, ptr %20, i32 0, i32 0
  %22 = load ptr, ptr %21, align 8, !tbaa !26
  store ptr %22, ptr %4, align 8, !tbaa !11
  %23 = getelementptr inbounds nuw %struct.RString, ptr %10, i32 0, i32 1
  %24 = load i64, ptr %23, align 8, !tbaa !202
  store i64 %24, ptr %6, align 8, !tbaa !7
  store i64 %24, ptr %11, align 8, !tbaa !7
  call void @llvm.lifetime.end.p0(i64 40, ptr %10) #26
  %25 = load ptr, ptr %4, align 8, !tbaa !11
  %26 = load i64, ptr %6, align 8, !tbaa !7
  %27 = getelementptr i8, ptr %25, i64 %26
  store ptr %27, ptr %5, align 8, !tbaa !11
  %28 = load ptr, ptr %4, align 8, !tbaa !11
  %29 = load ptr, ptr %5, align 8, !tbaa !11
  %30 = load ptr, ptr %7, align 8, !tbaa !19
  %31 = call ptr @rb_enc_path_skip_prefix(ptr noundef %28, ptr noundef %29, ptr noundef %30)
  %32 = load ptr, ptr %5, align 8, !tbaa !11
  %33 = load ptr, ptr %7, align 8, !tbaa !19
  %34 = call ptr @rb_enc_path_end(ptr noundef %31, ptr noundef %32, ptr noundef %33)
  store ptr %34, ptr %5, align 8, !tbaa !11
  %35 = load ptr, ptr %5, align 8, !tbaa !11
  %36 = load ptr, ptr %4, align 8, !tbaa !11
  %37 = ptrtoint ptr %35 to i64
  %38 = ptrtoint ptr %36 to i64
  %39 = sub i64 %37, %38
  %40 = load i64, ptr %6, align 8, !tbaa !7
  %41 = icmp slt i64 %39, %40
  br i1 %41, label %42, label %51

42:                                               ; preds = %1
  %43 = load i64, ptr %3, align 8, !tbaa !7
  %44 = load ptr, ptr %5, align 8, !tbaa !11
  %45 = load ptr, ptr %4, align 8, !tbaa !11
  %46 = ptrtoint ptr %44 to i64
  %47 = ptrtoint ptr %45 to i64
  %48 = sub i64 %46, %47
  %49 = call i64 @rb_str_subseq(i64 noundef %43, i64 noundef 0, i64 noundef %48)
  store i64 %49, ptr %3, align 8, !tbaa !7
  %50 = call ptr @rb_string_value_cstr(ptr noundef %3)
  br label %51

51:                                               ; preds = %42, %1
  %52 = load i64, ptr %3, align 8, !tbaa !7
  %53 = call i64 @rb_str_encode_ospath(i64 noundef %52)
  call void @llvm.lifetime.end.p0(i64 8, ptr %7) #26
  call void @llvm.lifetime.end.p0(i64 8, ptr %6) #26
  call void @llvm.lifetime.end.p0(i64 8, ptr %5) #26
  call void @llvm.lifetime.end.p0(i64 8, ptr %4) #26
  call void @llvm.lifetime.end.p0(i64 8, ptr %3) #26
  ret i64 %53
}