; Function Attrs: nounwind sspstrong uwtable
define internal fastcc i64 @check_dirname(i64 noundef %0) unnamed_addr #0 {
  %2 = alloca i64, align 8
  %3 = alloca ptr, align 8
  call void @llvm.lifetime.start.p0(i64 8, ptr nonnull %2) #22
  store i64 %0, ptr %2, align 8, !tbaa !7
  %4 = tail call i64 @rb_get_path(i64 noundef %0) #22
  call void @llvm.lifetime.start.p0(i64 8, ptr nonnull %3) #22
  store ptr %2, ptr %3, align 8, !tbaa !47
  call void asm sideeffect "", "*m,~{dirflag},~{fpsr},~{flags}"(ptr nonnull elementtype(ptr) %3) #22, !srcloc !197
  %5 = load ptr, ptr %3, align 8, !tbaa !47
  call void @llvm.lifetime.end.p0(i64 8, ptr nonnull %3) #22
  store volatile i64 %4, ptr %5, align 8, !tbaa !7
  %6 = load i64, ptr %2, align 8, !tbaa !7
  %7 = call ptr @rb_enc_get(i64 noundef %6) #22
  %8 = load i64, ptr %2, align 8, !tbaa !7
  %9 = inttoptr i64 %8 to ptr
  %10 = load i64, ptr %9, align 8, !tbaa !61, !noalias !198
  %11 = and i64 %10, 8192
  %.not.i = icmp eq i64 %11, 0
  %12 = getelementptr inbounds nuw i8, ptr %9, i64 24
  br i1 %.not.i, label %rbimpl_rstring_getmem.exit, label %13

13:                                               ; preds = %1
  %.sroa.5.0.copyload = load ptr, ptr %12, align 8
  br label %rbimpl_rstring_getmem.exit

rbimpl_rstring_getmem.exit:                       ; preds = %1, %13
  %.sroa.5.0 = phi ptr [ %.sroa.5.0.copyload, %13 ], [ %12, %1 ]
  %.sroa.3.0.in = getelementptr inbounds nuw i8, ptr %9, i64 16
  %.sroa.3.0 = load i64, ptr %.sroa.3.0.in, align 8, !tbaa !7
  %14 = getelementptr i8, ptr %.sroa.5.0, i64 %.sroa.3.0
  %15 = call ptr @rb_enc_path_skip_prefix(ptr noundef %.sroa.5.0, ptr noundef %14, ptr noundef %7) #22
  %16 = call ptr @rb_enc_path_end(ptr noundef %15, ptr noundef %14, ptr noundef %7) #22
  %17 = ptrtoint ptr %16 to i64
  %18 = ptrtoint ptr %.sroa.5.0 to i64
  %19 = sub i64 %17, %18
  %20 = icmp slt i64 %19, %.sroa.3.0
  br i1 %20, label %21, label %25

21:                                               ; preds = %rbimpl_rstring_getmem.exit
  %22 = load i64, ptr %2, align 8, !tbaa !7
  %23 = call i64 @rb_str_subseq(i64 noundef %22, i64 noundef 0, i64 noundef %19) #22
  store i64 %23, ptr %2, align 8, !tbaa !7
  %24 = call ptr @rb_string_value_cstr(ptr noundef nonnull %2) #22
  br label %25

25:                                               ; preds = %21, %rbimpl_rstring_getmem.exit
  %26 = load i64, ptr %2, align 8, !tbaa !7
  %27 = call i64 @rb_str_encode_ospath(i64 noundef %26) #22
  call void @llvm.lifetime.end.p0(i64 8, ptr nonnull %2) #22
  ret i64 %27
}